; ModuleID = '27/863.c'
source_filename = "27/863.c"
target datalayout = "e-m:e-p270:32:32-p271:32:32-p272:64:64-i64:64-f80:128-n8:16:32:64-S128"
target triple = "x86_64-pc-linux-gnu"

@.str = private unnamed_addr constant [3 x i8] c"%d\00", align 1
@.str.1 = private unnamed_addr constant [12 x i8] c"%lf %lf %lf\00", align 1
@.str.2 = private unnamed_addr constant [17 x i8] c"x1=%.5f;x2=%.5f\0A\00", align 1
@.str.3 = private unnamed_addr constant [12 x i8] c"x1=x2=%.5f\0A\00", align 1
@.str.4 = private unnamed_addr constant [29 x i8] c"x1=%.5f+%.5fi;x2=%.5f-%.5fi\0A\00", align 1

; Function Attrs: noinline nounwind uwtable
define dso_local i32 @main() #0 {
  %1 = alloca i32, align 4
  %2 = alloca i32, align 4
  %3 = alloca i32, align 4
  %4 = alloca double, align 8
  %5 = alloca double, align 8
  %6 = alloca double, align 8
  %7 = alloca double, align 8
  %8 = alloca double, align 8
  %9 = alloca double, align 8
  %10 = alloca double, align 8
  store i32 0, i32* %1, align 4
  %11 = call i32 (i8*, ...) @__isoc99_scanf(i8* getelementptr inbounds ([3 x i8], [3 x i8]* @.str, i64 0, i64 0), i32* %2)
  store i32 1, i32* %3, align 4
  br label %12

12:                                               ; preds = %137, %0
  %13 = load i32, i32* %3, align 4
  %14 = load i32, i32* %2, align 4
  %15 = icmp sle i32 %13, %14
  br i1 %15, label %16, label %140

16:                                               ; preds = %12
  %17 = call i32 (i8*, ...) @__isoc99_scanf(i8* getelementptr inbounds ([12 x i8], [12 x i8]* @.str.1, i64 0, i64 0), double* %4, double* %5, double* %6)
  %18 = load double, double* %5, align 8
  %19 = load double, double* %5, align 8
  %20 = fmul double %18, %19
  %21 = load double, double* %4, align 8
  %22 = fmul double 4.000000e+00, %21
  %23 = load double, double* %6, align 8
  %24 = fmul double %22, %23
  %25 = fsub double %20, %24
  %26 = fcmp ogt double %25, 0.000000e+00
  br i1 %26, label %27, label %61

27:                                               ; preds = %16
  %28 = load double, double* %5, align 8
  %29 = fneg double %28
  %30 = load double, double* %5, align 8
  %31 = load double, double* %5, align 8
  %32 = fmul double %30, %31
  %33 = load double, double* %4, align 8
  %34 = fmul double 4.000000e+00, %33
  %35 = load double, double* %6, align 8
  %36 = fmul double %34, %35
  %37 = fsub double %32, %36
  %38 = call double @sqrt(double %37) #4
  %39 = fadd double %29, %38
  %40 = load double, double* %4, align 8
  %41 = fmul double 2.000000e+00, %40
  %42 = fdiv double %39, %41
  store double %42, double* %7, align 8
  %43 = load double, double* %5, align 8
  %44 = fneg double %43
  %45 = load double, double* %5, align 8
  %46 = load double, double* %5, align 8
  %47 = fmul double %45, %46
  %48 = load double, double* %4, align 8
  %49 = fmul double 4.000000e+00, %48
  %50 = load double, double* %6, align 8
  %51 = fmul double %49, %50
  %52 = fsub double %47, %51
  %53 = call double @sqrt(double %52) #4
  %54 = fsub double %44, %53
  %55 = load double, double* %4, align 8
  %56 = fmul double 2.000000e+00, %55
  %57 = fdiv double %54, %56
  store double %57, double* %8, align 8
  %58 = load double, double* %7, align 8
  %59 = load double, double* %8, align 8
  %60 = call i32 (i8*, ...) @printf(i8* getelementptr inbounds ([17 x i8], [17 x i8]* @.str.2, i64 0, i64 0), double %58, double %59)
  br label %61

61:                                               ; preds = %27, %16
  %62 = load double, double* %5, align 8
  %63 = load double, double* %5, align 8
  %64 = fmul double %62, %63
  %65 = load double, double* %4, align 8
  %66 = fmul double 4.000000e+00, %65
  %67 = load double, double* %6, align 8
  %68 = fmul double %66, %67
  %69 = fsub double %64, %68
  %70 = fcmp olt double %69, 1.000000e-08
  br i1 %70, label %71, label %99

71:                                               ; preds = %61
  %72 = load double, double* %5, align 8
  %73 = load double, double* %5, align 8
  %74 = fmul double %72, %73
  %75 = load double, double* %4, align 8
  %76 = fmul double 4.000000e+00, %75
  %77 = load double, double* %6, align 8
  %78 = fmul double %76, %77
  %79 = fsub double %74, %78
  %80 = fcmp ogt double %79, -1.000000e-08
  br i1 %80, label %81, label %99

81:                                               ; preds = %71
  %82 = load double, double* %5, align 8
  %83 = fneg double %82
  %84 = load double, double* %5, align 8
  %85 = load double, double* %5, align 8
  %86 = fmul double %84, %85
  %87 = load double, double* %4, align 8
  %88 = fmul double 4.000000e+00, %87
  %89 = load double, double* %6, align 8
  %90 = fmul double %88, %89
  %91 = fsub double %86, %90
  %92 = call double @sqrt(double %91) #4
  %93 = fadd double %83, %92
  %94 = load double, double* %4, align 8
  %95 = fmul double 2.000000e+00, %94
  %96 = fdiv double %93, %95
  store double %96, double* %7, align 8
  %97 = load double, double* %7, align 8
  %98 = call i32 (i8*, ...) @printf(i8* getelementptr inbounds ([12 x i8], [12 x i8]* @.str.3, i64 0, i64 0), double %97)
  br label %99

99:                                               ; preds = %81, %71, %61
  %100 = load double, double* %5, align 8
  %101 = load double, double* %5, align 8
  %102 = fmul double %100, %101
  %103 = load double, double* %4, align 8
  %104 = fmul double 4.000000e+00, %103
  %105 = load double, double* %6, align 8
  %106 = fmul double %104, %105
  %107 = fsub double %102, %106
  %108 = fcmp olt double %107, -1.000000e-08
  br i1 %108, label %109, label %137

109:                                              ; preds = %99
  %110 = load double, double* %5, align 8
  %111 = fneg double %110
  %112 = load double, double* %4, align 8
  %113 = fmul double 2.000000e+00, %112
  %114 = fdiv double %111, %113
  store double %114, double* %9, align 8
  %115 = load double, double* %4, align 8
  %116 = fmul double 4.000000e+00, %115
  %117 = load double, double* %6, align 8
  %118 = fmul double %116, %117
  %119 = load double, double* %5, align 8
  %120 = load double, double* %5, align 8
  %121 = fmul double %119, %120
  %122 = fsub double %118, %121
  %123 = call double @sqrt(double %122) #4
  %124 = load double, double* %4, align 8
  %125 = fmul double 2.000000e+00, %124
  %126 = fdiv double %123, %125
  store double %126, double* %10, align 8
  %127 = load double, double* %9, align 8
  %128 = call double @llvm.fabs.f64(double %127)
  %129 = fcmp olt double %128, 1.000000e-05
  br i1 %129, label %130, label %131

130:                                              ; preds = %109
  store double 0.000000e+00, double* %9, align 8
  br label %131

131:                                              ; preds = %130, %109
  %132 = load double, double* %9, align 8
  %133 = load double, double* %10, align 8
  %134 = load double, double* %9, align 8
  %135 = load double, double* %10, align 8
  %136 = call i32 (i8*, ...) @printf(i8* getelementptr inbounds ([29 x i8], [29 x i8]* @.str.4, i64 0, i64 0), double %132, double %133, double %134, double %135)
  br label %137

137:                                              ; preds = %131, %99
  %138 = load i32, i32* %3, align 4
  %139 = add nsw i32 %138, 1
  store i32 %139, i32* %3, align 4
  br label %12

140:                                              ; preds = %12
  %141 = load i32, i32* %1, align 4
  ret i32 %141
}

declare dso_local i32 @__isoc99_scanf(i8*, ...) #1

; Function Attrs: nounwind
declare dso_local double @sqrt(double) #2

declare dso_local i32 @printf(i8*, ...) #1

; Function Attrs: nounwind readnone speculatable willreturn
declare double @llvm.fabs.f64(double) #3


!llvm.module.flags = !{!0}
!llvm.ident = !{!1}

!0 = !{i32 1, !"wchar_size", i32 4}
!1 = !{!"clang version 10.0.0-4ubuntu1 "}
